(dp0
VPTOKEN
p1
Vf23295a82e5cfa8c9e2ef5fb293aeecd
p2
sVHm_lpvt_90056b3f84f90da57dc0f40150f005d5
p3
V1438604793
p4
sVHOSUPPORT
p5
V1
p6
sVBDUSS
p7
VprdEdNREdtQ3BqbmtBYn5pZklBaHhnTEtBaFZ5OGFidEVxUGxFZHFEblY2dVpWQVFBQUFBJCQAAAAAAAAAAAEAAADhlOl6u6rO99eovNJ6agAAAAAAAAAAAAAAAAAAAAAAAAAAAAAAAAAAAAAAAAAAAAAAAAAAAAAAAAAAAAAAAAAAAAAAANVdv1XVXb9VNk
p8
sVUSERNAMETYPE
p9
V2
p10
sVBAIDUID
p11
VE226EB7BDAEC1DF6B040CA3F6E8F6316:FG=1
p12
sVTOPMSG
p13
V1438604759-0
p14
sVHm_lvt_90056b3f84f90da57dc0f40150f005d5
p15
V1438604789
p16
sVSAVEUSERID
p17
V15bfc73495b3cbc8e07eb74f3306964ec6b1f8e33005fb
p18
sVSTOKEN
p19
Vf92e579f75d009da807aad041fe4842a77dc87a2d0c627f3fdc0c722a7c4b25f
p20
sVUBI
p21
Vfi_PncwhpxZ%7ETaKAQKoR4q%7EHBaxXVBXHHmbkINNRWu%7EmhNpldI4nHF3RPVN9RdLjO8H6BkqnZgiKQTsENbhLB5QhzxBYmr2p6Oi6wiyOsAOM4uputXs7-Zztl2AkFjzrrwFZj7%7E0nVgpEa9r2QujcXd3SdjCYE_
p22
sVHISTORY
p23
V577a6ff72567c5a9b3ba3a74edafbc5caf3a79f2c2f1b906317f09
p24
s.