(dp0
VPTOKEN
p1
V90875ff02d63579c14cff5a27c6dfeb2
p2
sVHm_lpvt_90056b3f84f90da57dc0f40150f005d5
p3
V1438947310
p4
sVHOSUPPORT
p5
V1
p6
sVBDUSS
p7
VQxNjVyQmlUMnhFRUVmNUFZYVNTWkZXZk1QbXlUY1dlU3pGT3lEN2FlckxKT3hWQVFBQUFBJCQAAAAAAAAAAAEAAADhlOl6u6rO99eovNJ6agAAAAAAAAAAAAAAAAAAAAAAAAAAAAAAAAAAAAAAAAAAAAAAAAAAAAAAAAAAAAAAAAAAAAAAAMuXxFXLl8RVeX
p8
sVUSERNAMETYPE
p9
V2
p10
sVBAIDUID
p11
V61DCCC1AA219C72460BB5C577CE5859A:FG=1
p12
sVTOPMSG
p13
V1438947277-0
p14
sVHm_lvt_90056b3f84f90da57dc0f40150f005d5
p15
V1438947307
p16
sVSAVEUSERID
p17
V15bfc73495b3cbc8e07eb74f3306964ec6b1f8e33005fb
p18
sVSTOKEN
p19
V13b585fdda185a90eff2fdcafc9b183ecc67abc18f43e08ba94697fdd390876d
p20
sVUBI
p21
Vfi_PncwhpxZ%7ETaKARzrYu4hNGpvY7sBVxCynBeG7mtSaT2KSUo2v7aDwdF-Kr3pIEwEkaxaRHG6EONDgGI1BQv4elij8P%7EGzG-CNZ3Yrp0LgMIoSWzHbNADmwXubXznzLbpO4nisbTiguLczO15M8KGXmMAMw__
p22
sVHISTORY
p23
V577a6ff72567c5a9b3ba3a74edafbc5caf3a79f2c2f1b906317f09
p24
s.